; Function Attrs: mustprogress uwtable
define dso_local void @_ZNK14btQuantizedBvh26walkStacklessQuantizedTreeEP21btNodeOverlapCallbackPtS2_ii(ptr noundef nonnull readonly align 8 captures(none) dereferenceable(244) %0, ptr noundef %1, ptr noundef readonly captures(none) %2, ptr noundef readonly captures(none) %3, i32 noundef %4, i32 noundef %5) local_unnamed_addr #2 align 2 {
  %7 = icmp slt i32 %4, %5
  br i1 %7, label %.lr.ph, label %._crit_edge

.lr.ph:                                           ; preds = %6
  %8 = getelementptr inbounds nuw i8, ptr %0, i64 184
  %9 = load ptr, ptr %8, align 8, !tbaa !30
  %10 = sext i32 %4 to i64
  %11 = getelementptr inbounds %struct.btQuantizedBvhNode, ptr %9, i64 %10
  %12 = getelementptr inbounds nuw i8, ptr %2, i64 4
  %13 = getelementptr inbounds nuw i8, ptr %3, i64 4
  %14 = getelementptr inbounds nuw i8, ptr %2, i64 2
  %15 = getelementptr inbounds nuw i8, ptr %3, i64 2
  br label %16

16:                                               ; preds = %.lr.ph, %57
  %.032 = phi i32 [ %4, %.lr.ph ], [ %.1, %57 ]
  %.02831 = phi ptr [ %11, %.lr.ph ], [ %.129, %57 ]
  %17 = getelementptr inbounds nuw i8, ptr %.02831, i64 6
  %18 = load i16, ptr %2, align 2, !tbaa !52
  %19 = load i16, ptr %17, align 2, !tbaa !52
  %20 = icmp ule i16 %18, %19
  %21 = load i16, ptr %3, align 2, !tbaa !52
  %22 = load i16, ptr %.02831, align 2, !tbaa !52
  %23 = icmp uge i16 %21, %22
  %.not23.not32.i = and i1 %20, %23
  %24 = load i16, ptr %12, align 2, !tbaa !52
  %25 = getelementptr inbounds nuw i8, ptr %.02831, i64 10
  %26 = load i16, ptr %25, align 2, !tbaa !52
  %27 = icmp ule i16 %24, %26
  %.not21.not29.i = and i1 %.not23.not32.i, %27
  %28 = load i16, ptr %13, align 2, !tbaa !52
  %29 = getelementptr inbounds nuw i8, ptr %.02831, i64 4
  %30 = load i16, ptr %29, align 2, !tbaa !52
  %31 = icmp uge i16 %28, %30
  %.not18.not27.i = and i1 %.not21.not29.i, %31
  %32 = load i16, ptr %14, align 2, !tbaa !52
  %33 = getelementptr inbounds nuw i8, ptr %.02831, i64 8
  %34 = load i16, ptr %33, align 2, !tbaa !52
  %35 = icmp ule i16 %32, %34
  %.not16.not25.i = and i1 %.not18.not27.i, %35
  %36 = load i16, ptr %15, align 2, !tbaa !52
  %37 = getelementptr inbounds nuw i8, ptr %.02831, i64 2
  %38 = load i16, ptr %37, align 2, !tbaa !52
  %39 = icmp uge i16 %36, %38
  %.not13.not.i = and i1 %.not16.not25.i, %39
  %40 = getelementptr inbounds nuw i8, ptr %.02831, i64 12
  %41 = load i32, ptr %40, align 4, !tbaa !56
  %42 = icmp sgt i32 %41, -1
  %or.cond = and i1 %42, %.not13.not.i
  br i1 %or.cond, label %.thread, label %48

.thread:                                          ; preds = %16
  %43 = lshr i32 %41, 27
  %44 = and i32 %41, 134217727
  %45 = load ptr, ptr %1, align 8, !tbaa !4
  %46 = getelementptr inbounds nuw i8, ptr %45, i64 16
  %47 = load ptr, ptr %46, align 8
  tail call void %47(ptr noundef nonnull align 8 dereferenceable(8) %1, i32 noundef %43, i32 noundef %44)
  br label %49

48:                                               ; preds = %16
  %brmerge = or i1 %.not13.not.i, %42
  br i1 %brmerge, label %49, label %52

49:                                               ; preds = %.thread, %48
  %50 = getelementptr inbounds nuw i8, ptr %.02831, i64 16
  %51 = add nsw i32 %.032, 1
  br label %57

52:                                               ; preds = %48
  %53 = sub nsw i32 0, %41
  %54 = zext nneg i32 %53 to i64
  %55 = getelementptr inbounds nuw %struct.btQuantizedBvhNode, ptr %.02831, i64 %54
  %56 = sub nsw i32 %.032, %41
  br label %57

57:                                               ; preds = %52, %49
  %.129 = phi ptr [ %50, %49 ], [ %55, %52 ]
  %.1 = phi i32 [ %51, %49 ], [ %56, %52 ]
  %58 = icmp slt i32 %.1, %5
  br i1 %58, label %16, label %._crit_edge, !llvm.loop !69

._crit_edge:                                      ; preds = %57, %6
  ret void
}